target datalayout = "e-m:e-p270:32:32-p271:32:32-p272:64:64-i64:64-i128:128-f80:128-n8:16:32:64-S128"
target triple = "x86_64-pc-linux-gnu"

%struct.trace_key = type { ptr, i32, i8 }
%struct.index_state = type { ptr, i32, i32, i32, i32, ptr, ptr, ptr, %struct.cache_time, i8, i32, %struct.hashmap, %struct.hashmap, %struct.object_id, ptr, ptr, ptr, ptr, ptr, ptr, ptr }
%struct.cache_time = type { i32, i32 }
%struct.hashmap = type { ptr, ptr, ptr, i32, i32, i32, i32, i8 }
%struct.object_id = type { [32 x i8], i32 }
%struct.split_index = type { %struct.object_id, ptr, ptr, ptr, ptr, i32, i32, i32, i32 }

@the_repository = external global ptr, align 8
@.str.18 = private unnamed_addr constant [13 x i8] c"read-cache.c\00", align 1
@.str.19 = private unnamed_addr constant [6 x i8] c"index\00", align 1
@trace_perf_key = external global %struct.trace_key, align 8
@.str.33 = private unnamed_addr constant [14 x i8] c"do_read_index\00", align 1
@.str.34 = private unnamed_addr constant [3 x i8] c"%s\00", align 1
@.str.35 = private unnamed_addr constant [14 x i8] c"read cache %s\00", align 1
@.str.36 = private unnamed_addr constant [18 x i8] c"%s/sharedindex.%s\00", align 1
@.str.37 = private unnamed_addr constant [21 x i8] c"shared/do_read_index\00", align 1
@.str.38 = private unnamed_addr constant [38 x i8] c"broken index, expect %s in %s, got %s\00", align 1
@.str.57 = private unnamed_addr constant [27 x i8] c"size_t overflow: %lu * %lu\00", align 1
@is_null_oid.null_hash = internal constant [32 x i8] zeroinitializer, align 16
@.str.74 = private unnamed_addr constant [36 x i8] c"could not freshen shared index '%s'\00", align 1

; Function Attrs: nounwind uwtable
define internal void @freshen_shared_index(ptr noundef %0, i32 noundef %1) #0 {
  %3 = alloca ptr, align 8
  %4 = alloca i32, align 4
  store ptr %0, ptr %3, align 8, !tbaa !11
  store i32 %1, ptr %4, align 4, !tbaa !9
  %5 = load ptr, ptr %3, align 8, !tbaa !11
  %6 = call i32 @check_and_freshen_file(ptr noundef %5, i32 noundef 1)
  %7 = icmp ne i32 %6, 0
  br i1 %7, label %14, label %8

8:                                                ; preds = %2
  %9 = load i32, ptr %4, align 4, !tbaa !9
  %10 = icmp ne i32 %9, 0
  br i1 %10, label %11, label %14

11:                                               ; preds = %8
  %12 = call ptr @_(ptr noundef @.str.74)
  %13 = load ptr, ptr %3, align 8, !tbaa !11
  call void (ptr, ...) @warning(ptr noundef %12, ptr noundef %13)
  br label %14

14:                                               ; preds = %11, %8, %2
  ret void
}

; Function Attrs: inlinehint nounwind uwtable
define internal i32 @oideq(ptr noundef %0, ptr noundef %1) #3 {
  %3 = alloca ptr, align 8
  %4 = alloca ptr, align 8
  store ptr %0, ptr %3, align 8, !tbaa !71
  store ptr %1, ptr %4, align 8, !tbaa !71
  %5 = load ptr, ptr %3, align 8, !tbaa !71
  %6 = getelementptr inbounds nuw %struct.object_id, ptr %5, i32 0, i32 0
  %7 = getelementptr inbounds [32 x i8], ptr %6, i64 0, i64 0
  %8 = load ptr, ptr %4, align 8, !tbaa !71
  %9 = getelementptr inbounds nuw %struct.object_id, ptr %8, i32 0, i32 0
  %10 = getelementptr inbounds [32 x i8], ptr %9, i64 0, i64 0
  %11 = call i32 @memcmp(ptr noundef %7, ptr noundef %10, i64 noundef 32) #13
  %12 = icmp ne i32 %11, 0
  %13 = xor i1 %12, true
  %14 = zext i1 %13 to i32
  ret i32 %14
}

; Function Attrs: nounwind uwtable
define dso_local void @index_state_init(ptr noundef %0, ptr noundef %1) #0 {
  %3 = alloca ptr, align 8
  %4 = alloca ptr, align 8
  %5 = alloca %struct.index_state, align 8
  store ptr %0, ptr %3, align 8, !tbaa !4
  store ptr %1, ptr %4, align 8, !tbaa !48
  call void @llvm.lifetime.start.p0(i64 256, ptr %5) #12
  call void @llvm.memset.p0.i64(ptr align 8 %5, i8 0, i64 256, i1 false)
  %6 = getelementptr inbounds nuw %struct.index_state, ptr %5, i32 0, i32 19
  %7 = load ptr, ptr %4, align 8, !tbaa !48
  store ptr %7, ptr %6, align 8, !tbaa !41
  %8 = load ptr, ptr %3, align 8, !tbaa !4
  call void @llvm.memcpy.p0.p0.i64(ptr align 8 %8, ptr align 8 %5, i64 256, i1 false)
  call void @llvm.lifetime.end.p0(i64 256, ptr %5) #12
  ret void
}

; Function Attrs: inlinehint nounwind uwtable
define internal i64 @st_mult(i64 noundef %0, i64 noundef %1) #3 {
  %3 = alloca i64, align 8
  %4 = alloca i64, align 8
  store i64 %0, ptr %3, align 8, !tbaa !31
  store i64 %1, ptr %4, align 8, !tbaa !31
  %5 = load i64, ptr %3, align 8, !tbaa !31
  %6 = icmp ne i64 %5, 0
  br i1 %6, label %7, label %15

7:                                                ; preds = %2
  %8 = load i64, ptr %4, align 8, !tbaa !31
  %9 = load i64, ptr %3, align 8, !tbaa !31
  %10 = udiv i64 -1, %9
  %11 = icmp ugt i64 %8, %10
  br i1 %11, label %12, label %15

12:                                               ; preds = %7
  %13 = load i64, ptr %3, align 8, !tbaa !31
  %14 = load i64, ptr %4, align 8, !tbaa !31
  call void (ptr, ...) @die(ptr noundef @.str.57, i64 noundef %13, i64 noundef %14) #14
  unreachable

15:                                               ; preds = %7, %2
  %16 = load i64, ptr %3, align 8, !tbaa !31
  %17 = load i64, ptr %4, align 8, !tbaa !31
  %18 = mul i64 %16, %17
  ret i64 %18
}

; Function Attrs: inlinehint nounwind uwtable
define internal i32 @is_null_oid(ptr noundef %0) #3 {
  %2 = alloca ptr, align 8
  store ptr %0, ptr %2, align 8, !tbaa !71
  %3 = load ptr, ptr %2, align 8, !tbaa !71
  %4 = getelementptr inbounds nuw %struct.object_id, ptr %3, i32 0, i32 0
  %5 = getelementptr inbounds [32 x i8], ptr %4, i64 0, i64 0
  %6 = call i32 @memcmp(ptr noundef %5, ptr noundef @is_null_oid.null_hash, i64 noundef 32) #13
  %7 = icmp ne i32 %6, 0
  %8 = xor i1 %7, true
  %9 = zext i1 %8 to i32
  ret i32 %9
}

; Function Attrs: inlinehint nounwind uwtable
define internal i32 @trace_pass_fl(ptr noundef %0) #3 {
  %2 = alloca ptr, align 8
  store ptr %0, ptr %2, align 8, !tbaa !102
  %3 = load ptr, ptr %2, align 8, !tbaa !102
  %4 = getelementptr inbounds nuw %struct.trace_key, ptr %3, i32 0, i32 1
  %5 = load i32, ptr %4, align 8, !tbaa !104
  %6 = icmp ne i32 %5, 0
  br i1 %6, label %15, label %7

7:                                                ; preds = %1
  %8 = load ptr, ptr %2, align 8, !tbaa !102
  %9 = getelementptr inbounds nuw %struct.trace_key, ptr %8, i32 0, i32 2
  %10 = load i8, ptr %9, align 4
  %11 = and i8 %10, 1
  %12 = zext i8 %11 to i32
  %13 = icmp ne i32 %12, 0
  %14 = xor i1 %13, true
  br label %15

15:                                               ; preds = %7, %1
  %16 = phi i1 [ true, %1 ], [ %14, %7 ]
  %17 = zext i1 %16 to i32
  ret i32 %17
}

; Function Attrs: nounwind uwtable
define dso_local i32 @read_index_from(ptr noundef %0, ptr noundef %1, ptr noundef %2) #0 {
  %4 = alloca i32, align 4
  %5 = alloca ptr, align 8
  %6 = alloca ptr, align 8
  %7 = alloca ptr, align 8
  %8 = alloca ptr, align 8
  %9 = alloca i32, align 4
  %10 = alloca ptr, align 8
  %11 = alloca ptr, align 8
  %12 = alloca i32, align 4
  %13 = alloca ptr, align 8
  %14 = alloca ptr, align 8
  store ptr %0, ptr %5, align 8, !tbaa !4
  store ptr %1, ptr %6, align 8, !tbaa !11
  store ptr %2, ptr %7, align 8, !tbaa !11
  call void @llvm.lifetime.start.p0(i64 8, ptr %8) #12
  call void @llvm.lifetime.start.p0(i64 4, ptr %9) #12
  call void @llvm.lifetime.start.p0(i64 8, ptr %10) #12
  call void @llvm.lifetime.start.p0(i64 8, ptr %11) #12
  %15 = load ptr, ptr %5, align 8, !tbaa !4
  %16 = getelementptr inbounds nuw %struct.index_state, ptr %15, i32 0, i32 9
  %17 = load i8, ptr %16, align 8
  %18 = lshr i8 %17, 1
  %19 = and i8 %18, 1
  %20 = zext i8 %19 to i32
  %21 = icmp ne i32 %20, 0
  br i1 %21, label %22, label %26

22:                                               ; preds = %3
  %23 = load ptr, ptr %5, align 8, !tbaa !4
  %24 = getelementptr inbounds nuw %struct.index_state, ptr %23, i32 0, i32 2
  %25 = load i32, ptr %24, align 4, !tbaa !34
  store i32 %25, ptr %4, align 4
  store i32 1, ptr %12, align 4
  br label %149

26:                                               ; preds = %3
  %27 = load ptr, ptr @the_repository, align 8, !tbaa !48
  %28 = load ptr, ptr %6, align 8, !tbaa !11
  call void (ptr, i32, ptr, ptr, ptr, ptr, ...) @trace2_region_enter_printf_fl(ptr noundef @.str.18, i32 noundef 2386, ptr noundef @.str.19, ptr noundef @.str.33, ptr noundef %27, ptr noundef @.str.34, ptr noundef %28)
  %29 = call i64 @trace_performance_enter()
  %30 = load ptr, ptr %5, align 8, !tbaa !4
  %31 = load ptr, ptr %6, align 8, !tbaa !11
  %32 = call i32 @do_read_index(ptr noundef %30, ptr noundef %31, i32 noundef 0)
  store i32 %32, ptr %9, align 4, !tbaa !9
  br label %33

33:                                               ; preds = %26
  %34 = call i32 @trace_pass_fl(ptr noundef @trace_perf_key)
  %35 = icmp ne i32 %34, 0
  br i1 %35, label %36, label %39

36:                                               ; preds = %33
  %37 = call i64 @getnanotime()
  %38 = load ptr, ptr %6, align 8, !tbaa !11
  call void (ptr, i32, i64, ptr, ...) @trace_performance_leave_fl(ptr noundef @.str.18, i32 noundef 2389, i64 noundef %37, ptr noundef @.str.35, ptr noundef %38)
  br label %39

39:                                               ; preds = %36, %33
  br label %40

40:                                               ; preds = %39
  br label %41

41:                                               ; preds = %40
  %42 = load ptr, ptr @the_repository, align 8, !tbaa !48
  %43 = load ptr, ptr %6, align 8, !tbaa !11
  call void (ptr, i32, ptr, ptr, ptr, ptr, ...) @trace2_region_leave_printf_fl(ptr noundef @.str.18, i32 noundef 2391, ptr noundef @.str.19, ptr noundef @.str.33, ptr noundef %42, ptr noundef @.str.34, ptr noundef %43)
  %44 = load ptr, ptr %5, align 8, !tbaa !4
  %45 = getelementptr inbounds nuw %struct.index_state, ptr %44, i32 0, i32 7
  %46 = load ptr, ptr %45, align 8, !tbaa !77
  store ptr %46, ptr %8, align 8, !tbaa !94
  %47 = load ptr, ptr %8, align 8, !tbaa !94
  %48 = icmp ne ptr %47, null
  br i1 %48, label %49, label %54

49:                                               ; preds = %41
  %50 = load ptr, ptr %8, align 8, !tbaa !94
  %51 = getelementptr inbounds nuw %struct.split_index, ptr %50, i32 0, i32 0
  %52 = call i32 @is_null_oid(ptr noundef %51)
  %53 = icmp ne i32 %52, 0
  br i1 %53, label %54, label %57

54:                                               ; preds = %49, %41
  %55 = load ptr, ptr %5, align 8, !tbaa !4
  call void @post_read_index_from(ptr noundef %55)
  %56 = load i32, ptr %9, align 4, !tbaa !9
  store i32 %56, ptr %4, align 4
  store i32 1, ptr %12, align 4
  br label %149

57:                                               ; preds = %49
  %58 = call i64 @trace_performance_enter()
  %59 = load ptr, ptr %8, align 8, !tbaa !94
  %60 = getelementptr inbounds nuw %struct.split_index, ptr %59, i32 0, i32 1
  %61 = load ptr, ptr %60, align 8, !tbaa !78
  %62 = icmp ne ptr %61, null
  br i1 %62, label %63, label %67

63:                                               ; preds = %57
  %64 = load ptr, ptr %8, align 8, !tbaa !94
  %65 = getelementptr inbounds nuw %struct.split_index, ptr %64, i32 0, i32 1
  %66 = load ptr, ptr %65, align 8, !tbaa !78
  call void @release_index(ptr noundef %66)
  br label %72

67:                                               ; preds = %57
  %68 = call i64 @st_mult(i64 noundef 256, i64 noundef 1)
  %69 = call ptr @xmalloc(i64 noundef %68)
  %70 = load ptr, ptr %8, align 8, !tbaa !94
  %71 = getelementptr inbounds nuw %struct.split_index, ptr %70, i32 0, i32 1
  store ptr %69, ptr %71, align 8, !tbaa !78
  br label %72

72:                                               ; preds = %67, %63
  %73 = load ptr, ptr %8, align 8, !tbaa !94
  %74 = getelementptr inbounds nuw %struct.split_index, ptr %73, i32 0, i32 1
  %75 = load ptr, ptr %74, align 8, !tbaa !78
  %76 = load ptr, ptr %5, align 8, !tbaa !4
  %77 = getelementptr inbounds nuw %struct.index_state, ptr %76, i32 0, i32 19
  %78 = load ptr, ptr %77, align 8, !tbaa !41
  call void @index_state_init(ptr noundef %75, ptr noundef %78)
  %79 = load ptr, ptr %8, align 8, !tbaa !94
  %80 = getelementptr inbounds nuw %struct.split_index, ptr %79, i32 0, i32 0
  %81 = call ptr @oid_to_hex(ptr noundef %80)
  store ptr %81, ptr %10, align 8, !tbaa !11
  %82 = load ptr, ptr %7, align 8, !tbaa !11
  %83 = load ptr, ptr %10, align 8, !tbaa !11
  %84 = call ptr (ptr, ...) @xstrfmt(ptr noundef @.str.36, ptr noundef %82, ptr noundef %83)
  store ptr %84, ptr %11, align 8, !tbaa !11
  %85 = load ptr, ptr %11, align 8, !tbaa !11
  %86 = call i32 @file_exists(ptr noundef %85)
  %87 = icmp ne i32 %86, 0
  br i1 %87, label %88, label %98

88:                                               ; preds = %72
  %89 = load ptr, ptr @the_repository, align 8, !tbaa !48
  %90 = load ptr, ptr %11, align 8, !tbaa !11
  call void (ptr, i32, ptr, ptr, ptr, ptr, ...) @trace2_region_enter_printf_fl(ptr noundef @.str.18, i32 noundef 2410, ptr noundef @.str.19, ptr noundef @.str.37, ptr noundef %89, ptr noundef @.str.34, ptr noundef %90)
  %91 = load ptr, ptr %8, align 8, !tbaa !94
  %92 = getelementptr inbounds nuw %struct.split_index, ptr %91, i32 0, i32 1
  %93 = load ptr, ptr %92, align 8, !tbaa !78
  %94 = load ptr, ptr %11, align 8, !tbaa !11
  %95 = call i32 @do_read_index(ptr noundef %93, ptr noundef %94, i32 noundef 0)
  store i32 %95, ptr %9, align 4, !tbaa !9
  %96 = load ptr, ptr @the_repository, align 8, !tbaa !48
  %97 = load ptr, ptr %11, align 8, !tbaa !11
  call void (ptr, i32, ptr, ptr, ptr, ptr, ...) @trace2_region_leave_printf_fl(ptr noundef @.str.18, i32 noundef 2414, ptr noundef @.str.19, ptr noundef @.str.37, ptr noundef %96, ptr noundef @.str.34, ptr noundef %97)
  br label %116

98:                                               ; preds = %72
  call void @llvm.lifetime.start.p0(i64 8, ptr %13) #12
  %99 = load ptr, ptr %6, align 8, !tbaa !11
  %100 = call ptr @xstrdup(ptr noundef %99)
  store ptr %100, ptr %13, align 8, !tbaa !11
  call void @llvm.lifetime.start.p0(i64 8, ptr %14) #12
  %101 = load ptr, ptr %13, align 8, !tbaa !11
  %102 = call ptr @dirname(ptr noundef %101) #12
  %103 = load ptr, ptr %10, align 8, !tbaa !11
  %104 = call ptr (ptr, ...) @xstrfmt(ptr noundef @.str.36, ptr noundef %102, ptr noundef %103)
  store ptr %104, ptr %14, align 8, !tbaa !11
  %105 = load ptr, ptr %13, align 8, !tbaa !11
  call void @free(ptr noundef %105) #12
  %106 = load ptr, ptr @the_repository, align 8, !tbaa !48
  %107 = load ptr, ptr %14, align 8, !tbaa !11
  call void (ptr, i32, ptr, ptr, ptr, ptr, ...) @trace2_region_enter_printf_fl(ptr noundef @.str.18, i32 noundef 2421, ptr noundef @.str.19, ptr noundef @.str.37, ptr noundef %106, ptr noundef @.str.34, ptr noundef %107)
  %108 = load ptr, ptr %8, align 8, !tbaa !94
  %109 = getelementptr inbounds nuw %struct.split_index, ptr %108, i32 0, i32 1
  %110 = load ptr, ptr %109, align 8, !tbaa !78
  %111 = load ptr, ptr %14, align 8, !tbaa !11
  %112 = call i32 @do_read_index(ptr noundef %110, ptr noundef %111, i32 noundef 1)
  store i32 %112, ptr %9, align 4, !tbaa !9
  %113 = load ptr, ptr @the_repository, align 8, !tbaa !48
  %114 = load ptr, ptr %14, align 8, !tbaa !11
  call void (ptr, i32, ptr, ptr, ptr, ptr, ...) @trace2_region_leave_printf_fl(ptr noundef @.str.18, i32 noundef 2424, ptr noundef @.str.19, ptr noundef @.str.37, ptr noundef %113, ptr noundef @.str.34, ptr noundef %114)
  %115 = load ptr, ptr %14, align 8, !tbaa !11
  call void @free(ptr noundef %115) #12
  call void @llvm.lifetime.end.p0(i64 8, ptr %14) #12
  call void @llvm.lifetime.end.p0(i64 8, ptr %13) #12
  br label %116

116:                                              ; preds = %98, %88
  %117 = load ptr, ptr %8, align 8, !tbaa !94
  %118 = getelementptr inbounds nuw %struct.split_index, ptr %117, i32 0, i32 0
  %119 = load ptr, ptr %8, align 8, !tbaa !94
  %120 = getelementptr inbounds nuw %struct.split_index, ptr %119, i32 0, i32 1
  %121 = load ptr, ptr %120, align 8, !tbaa !78
  %122 = getelementptr inbounds nuw %struct.index_state, ptr %121, i32 0, i32 13
  %123 = call i32 @oideq(ptr noundef %118, ptr noundef %122)
  %124 = icmp ne i32 %123, 0
  br i1 %124, label %134, label %125

125:                                              ; preds = %116
  %126 = call ptr @_(ptr noundef @.str.38)
  %127 = load ptr, ptr %10, align 8, !tbaa !11
  %128 = load ptr, ptr %11, align 8, !tbaa !11
  %129 = load ptr, ptr %8, align 8, !tbaa !94
  %130 = getelementptr inbounds nuw %struct.split_index, ptr %129, i32 0, i32 1
  %131 = load ptr, ptr %130, align 8, !tbaa !78
  %132 = getelementptr inbounds nuw %struct.index_state, ptr %131, i32 0, i32 13
  %133 = call ptr @oid_to_hex(ptr noundef %132)
  call void (ptr, ...) @die(ptr noundef %126, ptr noundef %127, ptr noundef %128, ptr noundef %133) #14
  unreachable

134:                                              ; preds = %116
  %135 = load ptr, ptr %11, align 8, !tbaa !11
  call void @freshen_shared_index(ptr noundef %135, i32 noundef 0)
  %136 = load ptr, ptr %5, align 8, !tbaa !4
  call void @merge_base_index(ptr noundef %136)
  %137 = load ptr, ptr %5, align 8, !tbaa !4
  call void @post_read_index_from(ptr noundef %137)
  br label %138

138:                                              ; preds = %134
  %139 = call i32 @trace_pass_fl(ptr noundef @trace_perf_key)
  %140 = icmp ne i32 %139, 0
  br i1 %140, label %141, label %144

141:                                              ; preds = %138
  %142 = call i64 @getnanotime()
  %143 = load ptr, ptr %11, align 8, !tbaa !11
  call void (ptr, i32, i64, ptr, ...) @trace_performance_leave_fl(ptr noundef @.str.18, i32 noundef 2435, i64 noundef %142, ptr noundef @.str.35, ptr noundef %143)
  br label %144

144:                                              ; preds = %141, %138
  br label %145

145:                                              ; preds = %144
  br label %146

146:                                              ; preds = %145
  %147 = load ptr, ptr %11, align 8, !tbaa !11
  call void @free(ptr noundef %147) #12
  %148 = load i32, ptr %9, align 4, !tbaa !9
  store i32 %148, ptr %4, align 4
  store i32 1, ptr %12, align 4
  br label %149

149:                                              ; preds = %146, %54, %22
  call void @llvm.lifetime.end.p0(i64 8, ptr %11) #12
  call void @llvm.lifetime.end.p0(i64 8, ptr %10) #12
  call void @llvm.lifetime.end.p0(i64 4, ptr %9) #12
  call void @llvm.lifetime.end.p0(i64 8, ptr %8) #12
  %150 = load i32, ptr %4, align 4
  ret i32 %150
}