; Function Attrs: nounwind uwtable
define dso_local i32 @read_index_from(ptr noundef %0, ptr noundef %1, ptr noundef %2) local_unnamed_addr #0 {
  %4 = getelementptr inbounds nuw i8, ptr %0, i64 56
  %5 = load i8, ptr %4, align 8
  %6 = and i8 %5, 2
  %.not = icmp eq i8 %6, 0
  br i1 %.not, label %10, label %7

7:                                                ; preds = %3
  %8 = getelementptr inbounds nuw i8, ptr %0, i64 12
  %9 = load i32, ptr %8, align 4, !tbaa !34
  br label %64

10:                                               ; preds = %3
  %11 = load ptr, ptr @the_repository, align 8, !tbaa !52
  tail call void (ptr, i32, ptr, ptr, ptr, ptr, ...) @trace2_region_enter_printf_fl(ptr noundef nonnull @.str.18, i32 noundef 2386, ptr noundef nonnull @.str.19, ptr noundef nonnull @.str.33, ptr noundef %11, ptr noundef nonnull @.str.34, ptr noundef %1) #30
  %12 = tail call i64 @trace_performance_enter() #30
  %13 = tail call i32 @do_read_index(ptr noundef nonnull %0, ptr noundef %1, i32 noundef 0)
  %trace_perf_key.val56 = load i32, ptr getelementptr inbounds nuw (i8, ptr @trace_perf_key, i64 8), align 8, !tbaa !47
  %trace_perf_key.val57 = load i8, ptr getelementptr inbounds nuw (i8, ptr @trace_perf_key, i64 12), align 4
  %.not.i = icmp eq i32 %trace_perf_key.val56, 0
  %14 = and i8 %trace_perf_key.val57, 1
  %.not4862 = icmp ne i8 %14, 0
  %.not48 = select i1 %.not.i, i1 %.not4862, i1 false
  br i1 %.not48, label %17, label %15

15:                                               ; preds = %10
  %16 = tail call i64 @getnanotime() #30
  tail call void (ptr, i32, i64, ptr, ...) @trace_performance_leave_fl(ptr noundef nonnull @.str.18, i32 noundef 2389, i64 noundef %16, ptr noundef nonnull @.str.35, ptr noundef %1) #30
  br label %17

17:                                               ; preds = %15, %10
  %18 = load ptr, ptr @the_repository, align 8, !tbaa !52
  tail call void (ptr, i32, ptr, ptr, ptr, ptr, ...) @trace2_region_leave_printf_fl(ptr noundef nonnull @.str.18, i32 noundef 2391, ptr noundef nonnull @.str.19, ptr noundef nonnull @.str.33, ptr noundef %18, ptr noundef nonnull @.str.34, ptr noundef %1) #30
  %19 = getelementptr inbounds nuw i8, ptr %0, i64 40
  %20 = load ptr, ptr %19, align 8, !tbaa !27
  %.not49 = icmp eq ptr %20, null
  br i1 %.not49, label %22, label %21

21:                                               ; preds = %17
  %bcmp.i = tail call i32 @bcmp(ptr noundef nonnull readonly dereferenceable(32) %20, ptr noundef nonnull dereferenceable(32) @is_null_oid.null_hash, i64 32)
  %.not.i58.not = icmp eq i32 %bcmp.i, 0
  br i1 %.not.i58.not, label %22, label %23

22:                                               ; preds = %21, %17
  tail call fastcc void @post_read_index_from(ptr noundef nonnull %0)
  br label %64

23:                                               ; preds = %21
  %24 = tail call i64 @trace_performance_enter() #30
  %25 = getelementptr inbounds nuw i8, ptr %20, i64 40
  %26 = load ptr, ptr %25, align 8, !tbaa !28
  %.not51 = icmp eq ptr %26, null
  br i1 %.not51, label %28, label %27

27:                                               ; preds = %23
  tail call void @release_index(ptr noundef nonnull %26)
  %.pre = load ptr, ptr %25, align 8, !tbaa !28
  br label %30

28:                                               ; preds = %23
  %29 = tail call ptr @xmalloc(i64 noundef 256) #30
  store ptr %29, ptr %25, align 8, !tbaa !28
  br label %30

30:                                               ; preds = %28, %27
  %31 = phi ptr [ %29, %28 ], [ %.pre, %27 ]
  %32 = getelementptr inbounds nuw i8, ptr %0, i64 240
  %33 = load ptr, ptr %32, align 8, !tbaa !46
  tail call void @llvm.memset.p0.i64(ptr noundef nonnull align 8 dereferenceable(240) %31, i8 0, i64 240, i1 false)
  %.sroa.4.0..sroa_idx.i = getelementptr inbounds nuw i8, ptr %31, i64 240
  store ptr %33, ptr %.sroa.4.0..sroa_idx.i, align 8
  %.sroa.5.0..sroa_idx.i = getelementptr inbounds nuw i8, ptr %31, i64 248
  store ptr null, ptr %.sroa.5.0..sroa_idx.i, align 8
  %34 = tail call ptr @oid_to_hex(ptr noundef nonnull %20) #30
  %35 = tail call ptr (ptr, ...) @xstrfmt(ptr noundef nonnull @.str.36, ptr noundef %2, ptr noundef %34) #30
  %36 = tail call i32 @file_exists(ptr noundef %35) #30
  %.not52 = icmp eq i32 %36, 0
  br i1 %.not52, label %42, label %37

37:                                               ; preds = %30
  %38 = load ptr, ptr @the_repository, align 8, !tbaa !52
  tail call void (ptr, i32, ptr, ptr, ptr, ptr, ...) @trace2_region_enter_printf_fl(ptr noundef nonnull @.str.18, i32 noundef 2410, ptr noundef nonnull @.str.19, ptr noundef nonnull @.str.37, ptr noundef %38, ptr noundef nonnull @.str.34, ptr noundef %35) #30
  %39 = load ptr, ptr %25, align 8, !tbaa !28
  %40 = tail call i32 @do_read_index(ptr noundef %39, ptr noundef %35, i32 noundef 0)
  %41 = load ptr, ptr @the_repository, align 8, !tbaa !52
  tail call void (ptr, i32, ptr, ptr, ptr, ptr, ...) @trace2_region_leave_printf_fl(ptr noundef nonnull @.str.18, i32 noundef 2414, ptr noundef nonnull @.str.19, ptr noundef nonnull @.str.37, ptr noundef %41, ptr noundef nonnull @.str.34, ptr noundef %35) #30
  br label %50

42:                                               ; preds = %30
  %43 = tail call ptr @xstrdup(ptr noundef %1) #30
  %44 = tail call ptr @dirname(ptr noundef %43) #30
  %45 = tail call ptr (ptr, ...) @xstrfmt(ptr noundef nonnull @.str.36, ptr noundef %44, ptr noundef %34) #30
  tail call void @free(ptr noundef %43) #30
  %46 = load ptr, ptr @the_repository, align 8, !tbaa !52
  tail call void (ptr, i32, ptr, ptr, ptr, ptr, ...) @trace2_region_enter_printf_fl(ptr noundef nonnull @.str.18, i32 noundef 2421, ptr noundef nonnull @.str.19, ptr noundef nonnull @.str.37, ptr noundef %46, ptr noundef nonnull @.str.34, ptr noundef %45) #30
  %47 = load ptr, ptr %25, align 8, !tbaa !28
  %48 = tail call i32 @do_read_index(ptr noundef %47, ptr noundef %45, i32 noundef 1)
  %49 = load ptr, ptr @the_repository, align 8, !tbaa !52
  tail call void (ptr, i32, ptr, ptr, ptr, ptr, ...) @trace2_region_leave_printf_fl(ptr noundef nonnull @.str.18, i32 noundef 2424, ptr noundef nonnull @.str.19, ptr noundef nonnull @.str.37, ptr noundef %49, ptr noundef nonnull @.str.34, ptr noundef %45) #30
  tail call void @free(ptr noundef %45) #30
  br label %50

50:                                               ; preds = %42, %37
  %.045 = phi i32 [ %40, %37 ], [ %48, %42 ]
  %51 = load ptr, ptr %25, align 8, !tbaa !28
  %52 = getelementptr inbounds nuw i8, ptr %51, i64 160
  %bcmp.i59 = tail call i32 @bcmp(ptr noundef nonnull readonly dereferenceable(32) %20, ptr noundef nonnull readonly dereferenceable(32) %52, i64 32)
  %.not.i60.not = icmp eq i32 %bcmp.i59, 0
  br i1 %.not.i60.not, label %58, label %53

53:                                               ; preds = %50
  %54 = tail call fastcc ptr @_(ptr noundef nonnull @.str.38)
  %55 = load ptr, ptr %25, align 8, !tbaa !28
  %56 = getelementptr inbounds nuw i8, ptr %55, i64 160
  %57 = tail call ptr @oid_to_hex(ptr noundef nonnull %56) #30
  tail call void (ptr, ...) @die(ptr noundef %54, ptr noundef %34, ptr noundef %35, ptr noundef %57) #31
  unreachable

58:                                               ; preds = %50
  %59 = tail call i32 @check_and_freshen_file(ptr noundef %35, i32 noundef 1) #30
  tail call void @merge_base_index(ptr noundef nonnull %0) #30
  tail call fastcc void @post_read_index_from(ptr noundef nonnull %0)
  %trace_perf_key.val = load i32, ptr getelementptr inbounds nuw (i8, ptr @trace_perf_key, i64 8), align 8, !tbaa !47
  %trace_perf_key.val55 = load i8, ptr getelementptr inbounds nuw (i8, ptr @trace_perf_key, i64 12), align 4
  %.not.i61 = icmp eq i32 %trace_perf_key.val, 0
  %60 = and i8 %trace_perf_key.val55, 1
  %.not5463 = icmp ne i8 %60, 0
  %.not54 = select i1 %.not.i61, i1 %.not5463, i1 false
  br i1 %.not54, label %63, label %61

61:                                               ; preds = %58
  %62 = tail call i64 @getnanotime() #30
  tail call void (ptr, i32, i64, ptr, ...) @trace_performance_leave_fl(ptr noundef nonnull @.str.18, i32 noundef 2435, i64 noundef %62, ptr noundef nonnull @.str.35, ptr noundef %35) #30
  br label %63

63:                                               ; preds = %61, %58
  tail call void @free(ptr noundef %35) #30
  br label %64

64:                                               ; preds = %63, %22, %7
  %.0 = phi i32 [ %9, %7 ], [ %13, %22 ], [ %.045, %63 ]
  ret i32 %.0
}